target datalayout = "e-m:e-p270:32:32-p271:32:32-p272:64:64-i64:64-i128:128-f80:128-n8:16:32:64-S128"
target triple = "x86_64-pc-linux-gnu"

%struct.Vector3 = type { float, float, float }
%struct.Color = type { i8, i8, i8, i8 }
%struct.Ray = type { %struct.Vector3, %struct.Vector3 }

; Function Attrs: nounwind uwtable
define void @DrawRay(ptr noundef byval(%struct.Ray) align 8 %0, i32 %1) #0 {
  %3 = alloca %struct.Color, align 1
  %4 = alloca float, align 4
  store i32 %1, ptr %3, align 1
  call void @llvm.lifetime.start.p0(i64 4, ptr %4) #16
  store float 1.000000e+04, ptr %4, align 4
  call void @rlBegin(i32 noundef 1)
  %5 = getelementptr inbounds nuw %struct.Color, ptr %3, i32 0, i32 0
  %6 = load i8, ptr %5, align 1
  %7 = getelementptr inbounds nuw %struct.Color, ptr %3, i32 0, i32 1
  %8 = load i8, ptr %7, align 1
  %9 = getelementptr inbounds nuw %struct.Color, ptr %3, i32 0, i32 2
  %10 = load i8, ptr %9, align 1
  %11 = getelementptr inbounds nuw %struct.Color, ptr %3, i32 0, i32 3
  %12 = load i8, ptr %11, align 1
  call void @rlColor4ub(i8 noundef zeroext %6, i8 noundef zeroext %8, i8 noundef zeroext %10, i8 noundef zeroext %12)
  %13 = getelementptr inbounds nuw %struct.Color, ptr %3, i32 0, i32 0
  %14 = load i8, ptr %13, align 1
  %15 = getelementptr inbounds nuw %struct.Color, ptr %3, i32 0, i32 1
  %16 = load i8, ptr %15, align 1
  %17 = getelementptr inbounds nuw %struct.Color, ptr %3, i32 0, i32 2
  %18 = load i8, ptr %17, align 1
  %19 = getelementptr inbounds nuw %struct.Color, ptr %3, i32 0, i32 3
  %20 = load i8, ptr %19, align 1
  call void @rlColor4ub(i8 noundef zeroext %14, i8 noundef zeroext %16, i8 noundef zeroext %18, i8 noundef zeroext %20)
  %21 = getelementptr inbounds nuw %struct.Ray, ptr %0, i32 0, i32 0
  %22 = getelementptr inbounds nuw %struct.Vector3, ptr %21, i32 0, i32 0
  %23 = load float, ptr %22, align 8
  %24 = getelementptr inbounds nuw %struct.Ray, ptr %0, i32 0, i32 0
  %25 = getelementptr inbounds nuw %struct.Vector3, ptr %24, i32 0, i32 1
  %26 = load float, ptr %25, align 4
  %27 = getelementptr inbounds nuw %struct.Ray, ptr %0, i32 0, i32 0
  %28 = getelementptr inbounds nuw %struct.Vector3, ptr %27, i32 0, i32 2
  %29 = load float, ptr %28, align 8
  call void @rlVertex3f(float noundef %23, float noundef %26, float noundef %29)
  %30 = getelementptr inbounds nuw %struct.Ray, ptr %0, i32 0, i32 0
  %31 = getelementptr inbounds nuw %struct.Vector3, ptr %30, i32 0, i32 0
  %32 = load float, ptr %31, align 8
  %33 = getelementptr inbounds nuw %struct.Ray, ptr %0, i32 0, i32 1
  %34 = getelementptr inbounds nuw %struct.Vector3, ptr %33, i32 0, i32 0
  %35 = load float, ptr %34, align 4
  %36 = load float, ptr %4, align 4
  %37 = call float @llvm.fmuladd.f32(float %35, float %36, float %32)
  %38 = getelementptr inbounds nuw %struct.Ray, ptr %0, i32 0, i32 0
  %39 = getelementptr inbounds nuw %struct.Vector3, ptr %38, i32 0, i32 1
  %40 = load float, ptr %39, align 4
  %41 = getelementptr inbounds nuw %struct.Ray, ptr %0, i32 0, i32 1
  %42 = getelementptr inbounds nuw %struct.Vector3, ptr %41, i32 0, i32 1
  %43 = load float, ptr %42, align 4
  %44 = load float, ptr %4, align 4
  %45 = call float @llvm.fmuladd.f32(float %43, float %44, float %40)
  %46 = getelementptr inbounds nuw %struct.Ray, ptr %0, i32 0, i32 0
  %47 = getelementptr inbounds nuw %struct.Vector3, ptr %46, i32 0, i32 2
  %48 = load float, ptr %47, align 8
  %49 = getelementptr inbounds nuw %struct.Ray, ptr %0, i32 0, i32 1
  %50 = getelementptr inbounds nuw %struct.Vector3, ptr %49, i32 0, i32 2
  %51 = load float, ptr %50, align 4
  %52 = load float, ptr %4, align 4
  %53 = call float @llvm.fmuladd.f32(float %51, float %52, float %48)
  call void @rlVertex3f(float noundef %37, float noundef %45, float noundef %53)
  call void @rlEnd()
  call void @llvm.lifetime.end.p0(i64 4, ptr %4) #16
  ret void
}