; Function Attrs: nounwind uwtable
define void @DrawRay(ptr noundef readonly byval(%struct.Ray) align 8 captures(none) %0, i32 %1) local_unnamed_addr #0 {
  %.sroa.0.0.extract.trunc = trunc i32 %1 to i8
  %.sroa.3.0.extract.shift = lshr i32 %1, 8
  %.sroa.3.0.extract.trunc = trunc i32 %.sroa.3.0.extract.shift to i8
  %.sroa.5.0.extract.shift = lshr i32 %1, 16
  %.sroa.5.0.extract.trunc = trunc i32 %.sroa.5.0.extract.shift to i8
  %.sroa.7.0.extract.shift = lshr i32 %1, 24
  %.sroa.7.0.extract.trunc = trunc nuw i32 %.sroa.7.0.extract.shift to i8
  tail call void @rlBegin(i32 noundef 1) #57
  tail call void @rlColor4ub(i8 noundef zeroext %.sroa.0.0.extract.trunc, i8 noundef zeroext %.sroa.3.0.extract.trunc, i8 noundef zeroext %.sroa.5.0.extract.trunc, i8 noundef zeroext %.sroa.7.0.extract.trunc) #57
  tail call void @rlColor4ub(i8 noundef zeroext %.sroa.0.0.extract.trunc, i8 noundef zeroext %.sroa.3.0.extract.trunc, i8 noundef zeroext %.sroa.5.0.extract.trunc, i8 noundef zeroext %.sroa.7.0.extract.trunc) #57
  %3 = load float, ptr %0, align 8
  %4 = getelementptr inbounds nuw i8, ptr %0, i64 4
  %5 = load float, ptr %4, align 4
  %6 = getelementptr inbounds nuw i8, ptr %0, i64 8
  %7 = load float, ptr %6, align 8
  tail call void @rlVertex3f(float noundef %3, float noundef %5, float noundef %7) #57
  %8 = getelementptr inbounds nuw i8, ptr %0, i64 12
  %9 = load float, ptr %8, align 4
  %10 = tail call float @llvm.fmuladd.f32(float %9, float 1.000000e+04, float %3)
  %11 = getelementptr inbounds nuw i8, ptr %0, i64 16
  %12 = load float, ptr %11, align 8
  %13 = tail call float @llvm.fmuladd.f32(float %12, float 1.000000e+04, float %5)
  %14 = getelementptr inbounds nuw i8, ptr %0, i64 20
  %15 = load float, ptr %14, align 4
  %16 = tail call float @llvm.fmuladd.f32(float %15, float 1.000000e+04, float %7)
  tail call void @rlVertex3f(float noundef %10, float noundef %13, float noundef %16) #57
  tail call void @rlEnd() #57
  ret void
}